target datalayout = "e-m:e-p270:32:32-p271:32:32-p272:64:64-i64:64-i128:128-f80:128-n8:16:32:64-S128"
target triple = "x86_64-pc-linux-gnu"

; Function Attrs: nounwind uwtable
define i32 @arkAllocVecArray(i32 noundef %0, ptr noundef %1, ptr noundef %2, i64 noundef %3, ptr noundef %4, i64 noundef %5, ptr noundef %6) #0 {
  %8 = alloca i32, align 4
  %9 = alloca i32, align 4
  %10 = alloca ptr, align 8
  %11 = alloca ptr, align 8
  %12 = alloca i64, align 8
  %13 = alloca ptr, align 8
  %14 = alloca i64, align 8
  %15 = alloca ptr, align 8
  store i32 %0, ptr %9, align 4, !tbaa !38
  store ptr %1, ptr %10, align 8, !tbaa !7
  store ptr %2, ptr %11, align 8, !tbaa !220
  store i64 %3, ptr %12, align 8, !tbaa !30
  store ptr %4, ptr %13, align 8, !tbaa !222
  store i64 %5, ptr %14, align 8, !tbaa !30
  store ptr %6, ptr %15, align 8, !tbaa !222
  %16 = load ptr, ptr %11, align 8, !tbaa !220
  %17 = load ptr, ptr %16, align 8, !tbaa !89
  %18 = icmp eq ptr %17, null
  br i1 %18, label %19, label %43

19:                                               ; preds = %7
  %20 = load i32, ptr %9, align 4, !tbaa !38
  %21 = load ptr, ptr %10, align 8, !tbaa !7
  %22 = call ptr @N_VCloneVectorArray(i32 noundef %20, ptr noundef %21)
  %23 = load ptr, ptr %11, align 8, !tbaa !220
  store ptr %22, ptr %23, align 8, !tbaa !89
  %24 = load ptr, ptr %11, align 8, !tbaa !220
  %25 = load ptr, ptr %24, align 8, !tbaa !89
  %26 = icmp eq ptr %25, null
  br i1 %26, label %27, label %28

27:                                               ; preds = %19
  store i32 0, ptr %8, align 4
  br label %44

28:                                               ; preds = %19
  %29 = load i32, ptr %9, align 4, !tbaa !38
  %30 = sext i32 %29 to i64
  %31 = load i64, ptr %12, align 8, !tbaa !30
  %32 = mul nsw i64 %30, %31
  %33 = load ptr, ptr %13, align 8, !tbaa !222
  %34 = load i64, ptr %33, align 8, !tbaa !30
  %35 = add nsw i64 %34, %32
  store i64 %35, ptr %33, align 8, !tbaa !30
  %36 = load i32, ptr %9, align 4, !tbaa !38
  %37 = sext i32 %36 to i64
  %38 = load i64, ptr %14, align 8, !tbaa !30
  %39 = mul nsw i64 %37, %38
  %40 = load ptr, ptr %15, align 8, !tbaa !222
  %41 = load i64, ptr %40, align 8, !tbaa !30
  %42 = add nsw i64 %41, %39
  store i64 %42, ptr %40, align 8, !tbaa !30
  br label %43

43:                                               ; preds = %28, %7
  store i32 1, ptr %8, align 4
  br label %44

44:                                               ; preds = %43, %27
  %45 = load i32, ptr %8, align 4
  ret i32 %45
}