; Function Attrs: nounwind uwtable
define range(i32 0, 2) i32 @arkAllocVecArray(i32 noundef %0, ptr noundef %1, ptr noundef captures(none) %2, i64 noundef %3, ptr noundef captures(none) %4, i64 noundef %5, ptr noundef captures(none) %6) local_unnamed_addr #0 {
  %8 = load ptr, ptr %2, align 8, !tbaa !165
  %9 = icmp eq ptr %8, null
  br i1 %9, label %10, label %21

10:                                               ; preds = %7
  %11 = tail call ptr @N_VCloneVectorArray(i32 noundef %0, ptr noundef %1) #16
  store ptr %11, ptr %2, align 8, !tbaa !165
  %12 = icmp eq ptr %11, null
  br i1 %12, label %21, label %13

13:                                               ; preds = %10
  %14 = sext i32 %0 to i64
  %15 = mul nsw i64 %3, %14
  %16 = load i64, ptr %4, align 8, !tbaa !25
  %17 = add nsw i64 %16, %15
  store i64 %17, ptr %4, align 8, !tbaa !25
  %18 = mul nsw i64 %5, %14
  %19 = load i64, ptr %6, align 8, !tbaa !25
  %20 = add nsw i64 %19, %18
  store i64 %20, ptr %6, align 8, !tbaa !25
  br label %21

21:                                               ; preds = %7, %13, %10
  %.0 = phi i32 [ 0, %10 ], [ 1, %13 ], [ 1, %7 ]
  ret i32 %.0
}